; Function Attrs: mustprogress uwtable
define noundef i32 @ucol_getStrength_75(ptr noundef %coll) local_unnamed_addr #0 {
entry:
  %status = alloca i32, align 4
  store i32 0, ptr %status, align 4
  %cmp.i = icmp eq ptr %coll, null
  br i1 %cmp.i, label %ucol_getAttribute_75.exit, label %if.end.i

if.end.i:                                         ; preds = %entry
  %vtable.i = load ptr, ptr %coll, align 8
  %vfn.i = getelementptr inbounds i8, ptr %vtable.i, i64 192
  %0 = load ptr, ptr %vfn.i, align 8
  %call2.i = call noundef i32 %0(ptr noundef nonnull align 8 dereferenceable(8) %coll, i32 noundef 5, ptr noundef nonnull align 4 dereferenceable(4) %status)
  br label %ucol_getAttribute_75.exit

ucol_getAttribute_75.exit:                        ; preds = %entry, %if.end.i
  %retval.0.i = phi i32 [ %call2.i, %if.end.i ], [ -1, %entry ]
  ret i32 %retval.0.i
}